target datalayout = "e-m:e-p270:32:32-p271:32:32-p272:64:64-i64:64-i128:128-f80:128-n8:16:32:64-S128"
target triple = "x86_64-pc-linux-gnu"

%"class.cv::RNG" = type { i64 }

@_ZN6cvtest10param_seedE = hidden global i64 305419896, align 8
@_ZN6cvtest11testThreadsE = hidden global i32 0, align 4
@stdout = external global ptr, align 8
@stderr = external global ptr, align 8
@_ZN6cvtestL17memory_usage_baseE = internal global i64 0, align 8
@_ZN6cvtestL24memory_usage_base_opencvE = internal global i64 0, align 8

; Function Attrs: mustprogress uwtable
define hidden void @_ZN6cvtest9testSetUpEv() #6 {
  %1 = alloca ptr, align 8
  %2 = load ptr, ptr @stdout, align 8, !tbaa !154
  %3 = call i32 @fflush(ptr noundef %2)
  %4 = load ptr, ptr @stderr, align 8, !tbaa !154
  %5 = call i32 @fflush(ptr noundef %4)
  call void @_ZN2cv3ipp12setIppStatusEiPKcS2_i(i32 noundef 0, ptr noundef null, ptr noundef null, i32 noundef 0)
  %6 = load i64, ptr @_ZN6cvtest10param_seedE, align 8, !tbaa !29
  %7 = call noundef nonnull align 8 dereferenceable(8) ptr @_ZN2cv6theRNGEv()
  %8 = getelementptr inbounds nuw %"class.cv::RNG", ptr %7, i32 0, i32 0
  store i64 %6, ptr %8, align 8, !tbaa !156
  %9 = load i32, ptr @_ZN6cvtest11testThreadsE, align 4, !tbaa !8
  call void @_ZN2cv13setNumThreadsEi(i32 noundef %9)
  %10 = icmp ne ptr @malloc_peak, null
  br i1 %10, label %11, label %13

11:                                               ; preds = %0
  call void @malloc_reset_peak()
  %12 = call i64 @malloc_peak()
  store i64 %12, ptr @_ZN6cvtestL17memory_usage_baseE, align 8, !tbaa !29
  br label %13

13:                                               ; preds = %11, %0
  call void @llvm.lifetime.start.p0(i64 8, ptr %1) #3
  %14 = call noundef nonnull align 8 dereferenceable(8) ptr @_ZN2cv22getAllocatorStatisticsEv()
  store ptr %14, ptr %1, align 8, !tbaa !158
  %15 = load ptr, ptr %1, align 8, !tbaa !158
  %16 = load ptr, ptr %15, align 8, !tbaa !17
  %17 = getelementptr inbounds ptr, ptr %16, i64 6
  %18 = load ptr, ptr %17, align 8
  call void %18(ptr noundef nonnull align 8 dereferenceable(8) %15)
  %19 = load ptr, ptr %1, align 8, !tbaa !158
  %20 = load ptr, ptr %19, align 8, !tbaa !17
  %21 = getelementptr inbounds ptr, ptr %20, i64 2
  %22 = load ptr, ptr %21, align 8
  %23 = call noundef i64 %22(ptr noundef nonnull align 8 dereferenceable(8) %19)
  store i64 %23, ptr @_ZN6cvtestL24memory_usage_base_opencvE, align 8, !tbaa !29
  call void @llvm.lifetime.end.p0(i64 8, ptr %1) #3
  call void @_ZN6cvtest13checkTestTagsEv()
  ret void
}