; Function Attrs: mustprogress uwtable
define hidden void @_ZN6cvtest9testSetUpEv() local_unnamed_addr #4 {
  %1 = load ptr, ptr @stdout, align 8, !tbaa !172
  %2 = tail call i32 @fflush(ptr noundef %1)
  %3 = load ptr, ptr @stderr, align 8, !tbaa !172
  %4 = tail call i32 @fflush(ptr noundef %3)
  tail call void @_ZN2cv3ipp12setIppStatusEiPKcS2_i(i32 noundef 0, ptr noundef null, ptr noundef null, i32 noundef 0)
  %5 = load i64, ptr @_ZN6cvtest10param_seedE, align 8, !tbaa !37
  %6 = tail call noundef nonnull align 8 dereferenceable(8) ptr @_ZN2cv6theRNGEv()
  store i64 %5, ptr %6, align 8, !tbaa !174
  %7 = load i32, ptr @_ZN6cvtest11testThreadsE, align 4, !tbaa !96
  tail call void @_ZN2cv13setNumThreadsEi(i32 noundef %7)
  %.not = icmp eq ptr @malloc_peak, null
  br i1 %.not, label %10, label %8

8:                                                ; preds = %0
  tail call void @malloc_reset_peak()
  %9 = tail call i64 @malloc_peak()
  store i64 %9, ptr @_ZN6cvtestL17memory_usage_baseE, align 8, !tbaa !37
  br label %10

10:                                               ; preds = %8, %0
  %11 = tail call noundef nonnull align 8 dereferenceable(8) ptr @_ZN2cv22getAllocatorStatisticsEv()
  %12 = load ptr, ptr %11, align 8, !tbaa !3
  %13 = getelementptr inbounds nuw i8, ptr %12, i64 48
  %14 = load ptr, ptr %13, align 8
  tail call void %14(ptr noundef nonnull align 8 dereferenceable(8) %11)
  %15 = load ptr, ptr %11, align 8, !tbaa !3
  %16 = getelementptr inbounds nuw i8, ptr %15, i64 16
  %17 = load ptr, ptr %16, align 8
  %18 = tail call noundef i64 %17(ptr noundef nonnull align 8 dereferenceable(8) %11)
  store i64 %18, ptr @_ZN6cvtestL24memory_usage_base_opencvE, align 8, !tbaa !37
  tail call void @_ZN6cvtest13checkTestTagsEv()
  ret void
}